; Function Attrs: mustprogress nofree norecurse nosync nounwind willreturn memory(argmem: read) uwtable
define zeroext i8 @png_get_rgb_to_gray_status(ptr noalias noundef readonly %0) local_unnamed_addr #0 {
  %.not = icmp eq ptr %0, null
  br i1 %.not, label %5, label %2

2:                                                ; preds = %1
  %3 = getelementptr inbounds i8, ptr %0, i64 976
  %4 = load i8, ptr %3, align 8
  br label %5

5:                                                ; preds = %1, %2
  %6 = phi i8 [ %4, %2 ], [ 0, %1 ]
  ret i8 %6
}